target datalayout = "e-m:e-p270:32:32-p271:32:32-p272:64:64-i64:64-i128:128-f80:128-n8:16:32:64-S128"
target triple = "x86_64-pc-linux-gnu"

@ett_ansi_637_tele = internal global i32 0, align 4
@ett_ansi_637_trans = internal global i32 0, align 4
@ett_ansi_637_header_ind = internal global i32 0, align 4
@ett_params = internal global i32 0, align 4
@ett_ansi_637_tele_param = internal global [25 x i32] zeroinitializer, align 16
@ett_ansi_637_trans_msg = internal global [4 x i32] zeroinitializer, align 16
@ett_ansi_637_trans_param = internal global [10 x i32] zeroinitializer, align 16
@ett_tia_1149_cmas_param = internal global [4 x i32] zeroinitializer, align 16
@ansi_proto_name_tele = internal global ptr @.str.324, align 8
@.str.196 = private unnamed_addr constant [26 x i8] c"ANSI IS-637-A Teleservice\00", align 1
@.str.197 = private unnamed_addr constant [14 x i8] c"ansi_637_tele\00", align 1
@proto_ansi_637_tele = internal global i32 0, align 4
@ansi_proto_name_trans = internal global ptr @.str.325, align 8
@.str.198 = private unnamed_addr constant [24 x i8] c"ANSI IS-637-A Transport\00", align 1
@.str.199 = private unnamed_addr constant [15 x i8] c"ansi_637_trans\00", align 1
@proto_ansi_637_trans = internal global i32 0, align 4
@ansi_637_tele_handle = internal global ptr null, align 8
@ansi_637_trans_handle = internal global ptr null, align 8
@.str.200 = private unnamed_addr constant [19 x i8] c"ansi_637_trans_app\00", align 1
@ansi_637_trans_app_handle = internal global ptr null, align 8
@.str.201 = private unnamed_addr constant [17 x i8] c"ansi_637.tele_id\00", align 1
@.str.202 = private unnamed_addr constant [29 x i8] c"ANSI IS-637-A Teleservice ID\00", align 1
@tele_dissector_table = internal global ptr null, align 8

; Function Attrs: alwaysinline nounwind
define internal ptr @memset.inline(ptr %0, i32 %1, i64 %2) #2 {
  %4 = alloca ptr, align 8
  %5 = alloca i32, align 4
  %6 = alloca i64, align 8
  store ptr %0, ptr %4, align 8
  store i32 %1, ptr %5, align 4
  store i64 %2, ptr %6, align 8
  %7 = load ptr, ptr %4, align 8
  %8 = load i32, ptr %5, align 4
  %9 = load i64, ptr %6, align 8
  %10 = load ptr, ptr %4, align 8
  %11 = call i64 @llvm.objectsize.i64.p0(ptr %10, i1 false, i1 true, i1 true)
  %12 = call ptr @__memset_chk(ptr noundef %7, i32 noundef %8, i64 noundef %9, i64 noundef %11) #7
  ret ptr %12
}

; Function Attrs: null_pointer_is_valid sspstrong uwtable
define hidden void @proto_register_ansi_637() #0 {
  %1 = alloca i32, align 4
  %2 = alloca ptr, align 8
  %3 = alloca [47 x ptr], align 16
  call void @llvm.lifetime.start.p0(i64 4, ptr %1) #7
  call void @llvm.lifetime.start.p0(i64 8, ptr %2) #7
  call void @llvm.lifetime.start.p0(i64 376, ptr %3) #7
  %4 = getelementptr inbounds [47 x ptr], ptr %3, i64 0, i64 0
  %5 = call ptr @memset.inline(ptr noundef %4, i32 noundef 0, i64 noundef 376) #7
  %6 = getelementptr [47 x ptr], ptr %3, i64 0, i64 0
  store ptr @ett_ansi_637_tele, ptr %6, align 16
  %7 = getelementptr [47 x ptr], ptr %3, i64 0, i64 1
  store ptr @ett_ansi_637_trans, ptr %7, align 8
  %8 = getelementptr [47 x ptr], ptr %3, i64 0, i64 2
  store ptr @ett_ansi_637_header_ind, ptr %8, align 16
  %9 = getelementptr [47 x ptr], ptr %3, i64 0, i64 3
  store ptr @ett_params, ptr %9, align 8
  store i32 0, ptr %1, align 4
  br label %10

10:                                               ; preds = %22, %0
  %11 = load i32, ptr %1, align 4
  %12 = zext i32 %11 to i64
  %13 = icmp ult i64 %12, 25
  br i1 %13, label %14, label %25

14:                                               ; preds = %10
  %15 = load i32, ptr %1, align 4
  %16 = zext i32 %15 to i64
  %17 = getelementptr [25 x i32], ptr @ett_ansi_637_tele_param, i64 0, i64 %16
  %18 = load i32, ptr %1, align 4
  %19 = add i32 4, %18
  %20 = zext i32 %19 to i64
  %21 = getelementptr [47 x ptr], ptr %3, i64 0, i64 %20
  store ptr %17, ptr %21, align 8
  br label %22

22:                                               ; preds = %14
  %23 = load i32, ptr %1, align 4
  %24 = add i32 %23, 1
  store i32 %24, ptr %1, align 4
  br label %10, !llvm.loop !6

25:                                               ; preds = %10
  store i32 0, ptr %1, align 4
  br label %26

26:                                               ; preds = %38, %25
  %27 = load i32, ptr %1, align 4
  %28 = zext i32 %27 to i64
  %29 = icmp ult i64 %28, 4
  br i1 %29, label %30, label %41

30:                                               ; preds = %26
  %31 = load i32, ptr %1, align 4
  %32 = zext i32 %31 to i64
  %33 = getelementptr [4 x i32], ptr @ett_ansi_637_trans_msg, i64 0, i64 %32
  %34 = load i32, ptr %1, align 4
  %35 = zext i32 %34 to i64
  %36 = add i64 29, %35
  %37 = getelementptr [47 x ptr], ptr %3, i64 0, i64 %36
  store ptr %33, ptr %37, align 8
  br label %38

38:                                               ; preds = %30
  %39 = load i32, ptr %1, align 4
  %40 = add i32 %39, 1
  store i32 %40, ptr %1, align 4
  br label %26, !llvm.loop !8

41:                                               ; preds = %26
  store i32 0, ptr %1, align 4
  br label %42

42:                                               ; preds = %54, %41
  %43 = load i32, ptr %1, align 4
  %44 = zext i32 %43 to i64
  %45 = icmp ult i64 %44, 10
  br i1 %45, label %46, label %57

46:                                               ; preds = %42
  %47 = load i32, ptr %1, align 4
  %48 = zext i32 %47 to i64
  %49 = getelementptr [10 x i32], ptr @ett_ansi_637_trans_param, i64 0, i64 %48
  %50 = load i32, ptr %1, align 4
  %51 = zext i32 %50 to i64
  %52 = add i64 33, %51
  %53 = getelementptr [47 x ptr], ptr %3, i64 0, i64 %52
  store ptr %49, ptr %53, align 8
  br label %54

54:                                               ; preds = %46
  %55 = load i32, ptr %1, align 4
  %56 = add i32 %55, 1
  store i32 %56, ptr %1, align 4
  br label %42, !llvm.loop !9

57:                                               ; preds = %42
  store i32 0, ptr %1, align 4
  br label %58

58:                                               ; preds = %69, %57
  %59 = load i32, ptr %1, align 4
  %60 = icmp ult i32 %59, 4
  br i1 %60, label %61, label %72

61:                                               ; preds = %58
  %62 = load i32, ptr %1, align 4
  %63 = zext i32 %62 to i64
  %64 = getelementptr [4 x i32], ptr @ett_tia_1149_cmas_param, i64 0, i64 %63
  %65 = load i32, ptr %1, align 4
  %66 = zext i32 %65 to i64
  %67 = add i64 43, %66
  %68 = getelementptr [47 x ptr], ptr %3, i64 0, i64 %67
  store ptr %64, ptr %68, align 8
  br label %69

69:                                               ; preds = %61
  %70 = load i32, ptr %1, align 4
  %71 = add i32 %70, 1
  store i32 %71, ptr %1, align 4
  br label %58, !llvm.loop !10

72:                                               ; preds = %58
  %73 = load ptr, ptr @ansi_proto_name_tele, align 8
  %74 = call i32 @proto_register_protocol(ptr noundef %73, ptr noundef @.str.196, ptr noundef @.str.197)
  store i32 %74, ptr @proto_ansi_637_tele, align 4
  %75 = load ptr, ptr @ansi_proto_name_trans, align 8
  %76 = call i32 @proto_register_protocol(ptr noundef %75, ptr noundef @.str.198, ptr noundef @.str.199)
  store i32 %76, ptr @proto_ansi_637_trans, align 4
  %77 = load i32, ptr @proto_ansi_637_tele, align 4
  %78 = call ptr @register_dissector(ptr noundef @.str.197, ptr noundef @dissect_ansi_637_tele, i32 noundef %77)
  store ptr %78, ptr @ansi_637_tele_handle, align 8
  %79 = load i32, ptr @proto_ansi_637_trans, align 4
  %80 = call ptr @register_dissector(ptr noundef @.str.199, ptr noundef @dissect_ansi_637_trans, i32 noundef %79)
  store ptr %80, ptr @ansi_637_trans_handle, align 8
  %81 = load i32, ptr @proto_ansi_637_trans, align 4
  %82 = call ptr @register_dissector(ptr noundef @.str.200, ptr noundef @dissect_ansi_637_trans_app, i32 noundef %81)
  store ptr %82, ptr @ansi_637_trans_app_handle, align 8
  %83 = load i32, ptr @proto_ansi_637_tele, align 4
  call void @proto_register_field_array(i32 noundef %83, ptr noundef @proto_register_ansi_637.hf_tele, i32 noundef 93)
  %84 = load i32, ptr @proto_ansi_637_trans, align 4
  call void @proto_register_field_array(i32 noundef %84, ptr noundef @proto_register_ansi_637.hf_trans, i32 noundef 18)
  %85 = getelementptr inbounds [47 x ptr], ptr %3, i64 0, i64 0
  call void @proto_register_subtree_array(ptr noundef %85, i32 noundef 47)
  %86 = load i32, ptr @proto_ansi_637_trans, align 4
  %87 = call ptr @expert_register_protocol(i32 noundef %86)
  store ptr %87, ptr %2, align 8
  %88 = load ptr, ptr %2, align 8
  call void @expert_register_field_array(ptr noundef %88, ptr noundef @proto_register_ansi_637.ei, i32 noundef 10)
  %89 = load i32, ptr @proto_ansi_637_tele, align 4
  %90 = call ptr @register_dissector_table(ptr noundef @.str.201, ptr noundef @.str.202, i32 noundef %89, i32 noundef 4, i32 noundef 1)
  store ptr %90, ptr @tele_dissector_table, align 8
  call void @llvm.lifetime.end.p0(i64 376, ptr %3) #7
  call void @llvm.lifetime.end.p0(i64 8, ptr %2) #7
  call void @llvm.lifetime.end.p0(i64 4, ptr %1) #7
  ret void
}