; Function Attrs: null_pointer_is_valid sspstrong uwtable
define hidden void @proto_register_ansi_637() local_unnamed_addr #0 {
  %1 = alloca [47 x ptr], align 16
  call void @llvm.lifetime.start.p0(i64 376, ptr nonnull %1) #7
  %2 = getelementptr inbounds nuw i8, ptr %1, i64 32
  call void @llvm.memset.p0.i64(ptr noundef nonnull align 16 dereferenceable(376) %2, i8 noundef 0, i64 noundef 344, i1 noundef false) #7
  store ptr @ett_ansi_637_tele, ptr %1, align 16
  %3 = getelementptr inbounds nuw i8, ptr %1, i64 8
  store ptr @ett_ansi_637_trans, ptr %3, align 8
  %4 = getelementptr inbounds nuw i8, ptr %1, i64 16
  store ptr @ett_ansi_637_header_ind, ptr %4, align 16
  %5 = getelementptr inbounds nuw i8, ptr %1, i64 24
  store ptr @ett_params, ptr %5, align 8
  br label %6

6:                                                ; preds = %0, %6
  %indvars.iv = phi i64 [ 0, %0 ], [ %indvars.iv.next, %6 ]
  %7 = getelementptr [25 x i32], ptr @ett_ansi_637_tele_param, i64 0, i64 %indvars.iv
  %8 = add nuw nsw i64 %indvars.iv, 4
  %9 = getelementptr [47 x ptr], ptr %1, i64 0, i64 %8
  store ptr %7, ptr %9, align 8
  %indvars.iv.next = add nuw nsw i64 %indvars.iv, 1
  %exitcond.not = icmp eq i64 %indvars.iv.next, 25
  br i1 %exitcond.not, label %.preheader20, label %6, !llvm.loop !6

.preheader20:                                     ; preds = %6, %.preheader20
  %indvars.iv26 = phi i64 [ %indvars.iv.next27, %.preheader20 ], [ 0, %6 ]
  %10 = getelementptr [4 x i32], ptr @ett_ansi_637_trans_msg, i64 0, i64 %indvars.iv26
  %11 = add nuw nsw i64 %indvars.iv26, 29
  %12 = getelementptr [47 x ptr], ptr %1, i64 0, i64 %11
  store ptr %10, ptr %12, align 8
  %indvars.iv.next27 = add nuw nsw i64 %indvars.iv26, 1
  %exitcond29.not = icmp eq i64 %indvars.iv.next27, 4
  br i1 %exitcond29.not, label %.preheader19, label %.preheader20, !llvm.loop !8

.preheader19:                                     ; preds = %.preheader20, %.preheader19
  %indvars.iv30 = phi i64 [ %indvars.iv.next31, %.preheader19 ], [ 0, %.preheader20 ]
  %13 = getelementptr [10 x i32], ptr @ett_ansi_637_trans_param, i64 0, i64 %indvars.iv30
  %14 = add nuw nsw i64 %indvars.iv30, 33
  %15 = getelementptr [47 x ptr], ptr %1, i64 0, i64 %14
  store ptr %13, ptr %15, align 8
  %indvars.iv.next31 = add nuw nsw i64 %indvars.iv30, 1
  %exitcond33.not = icmp eq i64 %indvars.iv.next31, 10
  br i1 %exitcond33.not, label %.preheader, label %.preheader19, !llvm.loop !9

.preheader:                                       ; preds = %.preheader19, %.preheader
  %indvars.iv34 = phi i64 [ %indvars.iv.next35, %.preheader ], [ 0, %.preheader19 ]
  %16 = getelementptr [4 x i32], ptr @ett_tia_1149_cmas_param, i64 0, i64 %indvars.iv34
  %17 = add nuw nsw i64 %indvars.iv34, 43
  %18 = getelementptr [47 x ptr], ptr %1, i64 0, i64 %17
  store ptr %16, ptr %18, align 8
  %indvars.iv.next35 = add nuw nsw i64 %indvars.iv34, 1
  %exitcond37.not = icmp eq i64 %indvars.iv.next35, 4
  br i1 %exitcond37.not, label %19, label %.preheader, !llvm.loop !10

19:                                               ; preds = %.preheader
  %20 = tail call i32 @proto_register_protocol(ptr noundef nonnull @.str.324, ptr noundef nonnull @.str.196, ptr noundef nonnull @.str.197)
  store i32 %20, ptr @proto_ansi_637_tele, align 4
  %21 = tail call i32 @proto_register_protocol(ptr noundef nonnull @.str.325, ptr noundef nonnull @.str.198, ptr noundef nonnull @.str.199)
  store i32 %21, ptr @proto_ansi_637_trans, align 4
  %22 = load i32, ptr @proto_ansi_637_tele, align 4
  %23 = tail call ptr @register_dissector(ptr noundef nonnull @.str.197, ptr noundef nonnull @dissect_ansi_637_tele, i32 noundef %22)
  store ptr %23, ptr @ansi_637_tele_handle, align 8
  %24 = load i32, ptr @proto_ansi_637_trans, align 4
  %25 = tail call ptr @register_dissector(ptr noundef nonnull @.str.199, ptr noundef nonnull @dissect_ansi_637_trans, i32 noundef %24)
  store ptr %25, ptr @ansi_637_trans_handle, align 8
  %26 = load i32, ptr @proto_ansi_637_trans, align 4
  %27 = tail call ptr @register_dissector(ptr noundef nonnull @.str.200, ptr noundef nonnull @dissect_ansi_637_trans_app, i32 noundef %26)
  store ptr %27, ptr @ansi_637_trans_app_handle, align 8
  %28 = load i32, ptr @proto_ansi_637_tele, align 4
  tail call void @proto_register_field_array(i32 noundef %28, ptr noundef nonnull @proto_register_ansi_637.hf_tele, i32 noundef 93)
  %29 = load i32, ptr @proto_ansi_637_trans, align 4
  tail call void @proto_register_field_array(i32 noundef %29, ptr noundef nonnull @proto_register_ansi_637.hf_trans, i32 noundef 18)
  call void @proto_register_subtree_array(ptr noundef nonnull %1, i32 noundef 47)
  %30 = load i32, ptr @proto_ansi_637_trans, align 4
  %31 = call ptr @expert_register_protocol(i32 noundef %30)
  call void @expert_register_field_array(ptr noundef %31, ptr noundef nonnull @proto_register_ansi_637.ei, i32 noundef 10)
  %32 = load i32, ptr @proto_ansi_637_tele, align 4
  %33 = call ptr @register_dissector_table(ptr noundef nonnull @.str.201, ptr noundef nonnull @.str.202, i32 noundef %32, i32 noundef 4, i32 noundef 1)
  store ptr %33, ptr @tele_dissector_table, align 8
  call void @llvm.lifetime.end.p0(i64 376, ptr nonnull %1) #7
  ret void
}